target datalayout = "e-m:e-p270:32:32-p271:32:32-p272:64:64-i64:64-i128:128-f80:128-n8:16:32:64-S128"
target triple = "x86_64-pc-linux-gnu"

%"struct.(anonymous namespace)::GAUSS" = type { double, double, double, double }
%struct.PJ_LP = type { double, double }

; Function Attrs: mustprogress nounwind uwtable
define internal noundef double @_ZL4sratdd(double noundef %0, double noundef %1) #5 {
  %3 = alloca double, align 8
  %4 = alloca double, align 8
  store double %0, ptr %3, align 8, !tbaa !3
  store double %1, ptr %4, align 8, !tbaa !3
  %5 = load double, ptr %3, align 8, !tbaa !3
  %6 = fsub double 1.000000e+00, %5
  %7 = load double, ptr %3, align 8, !tbaa !3
  %8 = fadd double 1.000000e+00, %7
  %9 = fdiv double %6, %8
  %10 = load double, ptr %4, align 8, !tbaa !3
  %11 = call double @pow(double noundef %9, double noundef %10) #7, !tbaa !14
  ret double %11
}

; Function Attrs: mustprogress uwtable
define hidden { double, double } @_Z8pj_gaussP6pj_ctx5PJ_LPPKv(ptr noundef %0, double %1, double %2, ptr noundef %3) #0 {
  %5 = alloca %struct.PJ_LP, align 8
  %6 = alloca %struct.PJ_LP, align 8
  %7 = alloca ptr, align 8
  %8 = alloca ptr, align 8
  %9 = alloca ptr, align 8
  %10 = getelementptr inbounds nuw { double, double }, ptr %6, i32 0, i32 0
  store double %1, ptr %10, align 8
  %11 = getelementptr inbounds nuw { double, double }, ptr %6, i32 0, i32 1
  store double %2, ptr %11, align 8
  store ptr %0, ptr %7, align 8, !tbaa !19
  store ptr %3, ptr %8, align 8, !tbaa !21
  call void @llvm.lifetime.start.p0(i64 8, ptr %9) #7
  %12 = load ptr, ptr %8, align 8, !tbaa !21
  store ptr %12, ptr %9, align 8, !tbaa !10
  %13 = load ptr, ptr %9, align 8, !tbaa !10
  %14 = getelementptr inbounds nuw %"struct.(anonymous namespace)::GAUSS", ptr %13, i32 0, i32 1
  %15 = load double, ptr %14, align 8, !tbaa !18
  %16 = getelementptr inbounds nuw %struct.PJ_LP, ptr %6, i32 0, i32 1
  %17 = load double, ptr %16, align 8, !tbaa !22
  %18 = call double @llvm.fmuladd.f64(double 5.000000e-01, double %17, double 0x3FE921FB54442D18)
  %19 = call double @tan(double noundef %18) #7, !tbaa !14
  %20 = load ptr, ptr %9, align 8, !tbaa !10
  %21 = getelementptr inbounds nuw %"struct.(anonymous namespace)::GAUSS", ptr %20, i32 0, i32 0
  %22 = load double, ptr %21, align 8, !tbaa !16
  %23 = call double @pow(double noundef %19, double noundef %22) #7, !tbaa !14
  %24 = fmul double %15, %23
  %25 = load ptr, ptr %9, align 8, !tbaa !10
  %26 = getelementptr inbounds nuw %"struct.(anonymous namespace)::GAUSS", ptr %25, i32 0, i32 2
  %27 = load double, ptr %26, align 8, !tbaa !12
  %28 = getelementptr inbounds nuw %struct.PJ_LP, ptr %6, i32 0, i32 1
  %29 = load double, ptr %28, align 8, !tbaa !22
  %30 = call double @sin(double noundef %29) #7, !tbaa !14
  %31 = fmul double %27, %30
  %32 = load ptr, ptr %9, align 8, !tbaa !10
  %33 = getelementptr inbounds nuw %"struct.(anonymous namespace)::GAUSS", ptr %32, i32 0, i32 3
  %34 = load double, ptr %33, align 8, !tbaa !17
  %35 = call noundef double @_ZL4sratdd(double noundef %31, double noundef %34)
  %36 = fmul double %24, %35
  %37 = call double @atan(double noundef %36) #7, !tbaa !14
  %38 = call double @llvm.fmuladd.f64(double 2.000000e+00, double %37, double 0xBFF921FB54442D18)
  %39 = getelementptr inbounds nuw %struct.PJ_LP, ptr %5, i32 0, i32 1
  store double %38, ptr %39, align 8, !tbaa !22
  %40 = load ptr, ptr %9, align 8, !tbaa !10
  %41 = getelementptr inbounds nuw %"struct.(anonymous namespace)::GAUSS", ptr %40, i32 0, i32 0
  %42 = load double, ptr %41, align 8, !tbaa !16
  %43 = getelementptr inbounds nuw %struct.PJ_LP, ptr %6, i32 0, i32 0
  %44 = load double, ptr %43, align 8, !tbaa !24
  %45 = fmul double %42, %44
  %46 = getelementptr inbounds nuw %struct.PJ_LP, ptr %5, i32 0, i32 0
  store double %45, ptr %46, align 8, !tbaa !24
  call void @llvm.lifetime.end.p0(i64 8, ptr %9) #7
  %47 = load { double, double }, ptr %5, align 8
  ret { double, double } %47
}