; Function Attrs: mustprogress nofree nounwind willreturn memory(write, argmem: readwrite) uwtable
define hidden { double, double } @_Z8pj_gaussP6pj_ctx5PJ_LPPKv(ptr noundef readnone captures(none) %0, double %1, double %2, ptr noundef readonly captures(none) %3) local_unnamed_addr #5 {
  %5 = getelementptr inbounds nuw i8, ptr %3, i64 8
  %6 = load double, ptr %5, align 8, !tbaa !13
  %7 = tail call double @llvm.fmuladd.f64(double %2, double 5.000000e-01, double 0x3FE921FB54442D18)
  %8 = tail call double @tan(double noundef %7) #9, !tbaa !8
  %9 = load double, ptr %3, align 8, !tbaa !11
  %10 = tail call double @pow(double noundef %8, double noundef %9) #9, !tbaa !8
  %11 = fmul double %6, %10
  %12 = getelementptr inbounds nuw i8, ptr %3, i64 16
  %13 = load double, ptr %12, align 8, !tbaa !3
  %14 = tail call double @sin(double noundef %2) #9, !tbaa !8
  %15 = fmul double %13, %14
  %16 = getelementptr inbounds nuw i8, ptr %3, i64 24
  %17 = load double, ptr %16, align 8, !tbaa !12
  %18 = fsub double 1.000000e+00, %15
  %19 = fadd double %15, 1.000000e+00
  %20 = fdiv double %18, %19
  %21 = tail call noundef double @pow(double noundef %20, double noundef %17) #9, !tbaa !8
  %22 = fmul double %11, %21
  %23 = tail call double @atan(double noundef %22) #9, !tbaa !8
  %24 = tail call double @llvm.fmuladd.f64(double %23, double 2.000000e+00, double 0xBFF921FB54442D18)
  %25 = fmul double %1, %9
  %.fca.0.insert = insertvalue { double, double } poison, double %25, 0
  %.fca.1.insert = insertvalue { double, double } %.fca.0.insert, double %24, 1
  ret { double, double } %.fca.1.insert
}